; ModuleID = '15/1290.c'
source_filename = "15/1290.c"
target datalayout = "e-m:e-p270:32:32-p271:32:32-p272:64:64-i64:64-f80:128-n8:16:32:64-S128"
target triple = "x86_64-pc-linux-gnu"

@.str = private unnamed_addr constant [3 x i8] c"%d\00", align 1

; Function Attrs: noinline nounwind uwtable
define dso_local i32 @main() #0 {
  %1 = alloca i32, align 4
  %2 = alloca i32, align 4
  %3 = alloca [1000 x [1000 x i32]], align 16
  %4 = alloca i32, align 4
  %5 = alloca i32, align 4
  %6 = alloca i32, align 4
  %7 = alloca i32, align 4
  %8 = alloca i32, align 4
  %9 = alloca i32, align 4
  %10 = alloca i32, align 4
  %11 = alloca i32, align 4
  %12 = alloca i32, align 4
  store i32 0, i32* %1, align 4
  %13 = call i32 (i8*, ...) @__isoc99_scanf(i8* getelementptr inbounds ([3 x i8], [3 x i8]* @.str, i64 0, i64 0), i32* %2)
  store i32 0, i32* %4, align 4
  br label %14

14:                                               ; preds = %35, %0
  %15 = load i32, i32* %4, align 4
  %16 = load i32, i32* %2, align 4
  %17 = icmp slt i32 %15, %16
  br i1 %17, label %18, label %38

18:                                               ; preds = %14
  store i32 0, i32* %5, align 4
  br label %19

19:                                               ; preds = %31, %18
  %20 = load i32, i32* %5, align 4
  %21 = load i32, i32* %2, align 4
  %22 = icmp slt i32 %20, %21
  br i1 %22, label %23, label %34

23:                                               ; preds = %19
  %24 = load i32, i32* %4, align 4
  %25 = sext i32 %24 to i64
  %26 = getelementptr inbounds [1000 x [1000 x i32]], [1000 x [1000 x i32]]* %3, i64 0, i64 %25
  %27 = load i32, i32* %5, align 4
  %28 = sext i32 %27 to i64
  %29 = getelementptr inbounds [1000 x i32], [1000 x i32]* %26, i64 0, i64 %28
  %30 = call i32 (i8*, ...) @__isoc99_scanf(i8* getelementptr inbounds ([3 x i8], [3 x i8]* @.str, i64 0, i64 0), i32* %29)
  br label %31

31:                                               ; preds = %23
  %32 = load i32, i32* %5, align 4
  %33 = add nsw i32 %32, 1
  store i32 %33, i32* %5, align 4
  br label %19

34:                                               ; preds = %19
  br label %35

35:                                               ; preds = %34
  %36 = load i32, i32* %4, align 4
  %37 = add nsw i32 %36, 1
  store i32 %37, i32* %4, align 4
  br label %14

38:                                               ; preds = %14
  store i32 -1, i32* %10, align 4
  store i32 0, i32* %4, align 4
  br label %39

39:                                               ; preds = %68, %38
  %40 = load i32, i32* %4, align 4
  %41 = load i32, i32* %2, align 4
  %42 = icmp slt i32 %40, %41
  br i1 %42, label %43, label %71

43:                                               ; preds = %39
  store i32 0, i32* %5, align 4
  br label %44

44:                                               ; preds = %64, %43
  %45 = load i32, i32* %5, align 4
  %46 = load i32, i32* %2, align 4
  %47 = icmp slt i32 %45, %46
  br i1 %47, label %48, label %67

48:                                               ; preds = %44
  %49 = load i32, i32* %4, align 4
  %50 = sext i32 %49 to i64
  %51 = getelementptr inbounds [1000 x [1000 x i32]], [1000 x [1000 x i32]]* %3, i64 0, i64 %50
  %52 = load i32, i32* %5, align 4
  %53 = sext i32 %52 to i64
  %54 = getelementptr inbounds [1000 x i32], [1000 x i32]* %51, i64 0, i64 %53
  %55 = load i32, i32* %54, align 4
  %56 = icmp eq i32 %55, 0
  br i1 %56, label %57, label %63

57:                                               ; preds = %48
  %58 = load i32, i32* %10, align 4
  %59 = icmp eq i32 %58, -1
  br i1 %59, label %60, label %63

60:                                               ; preds = %57
  %61 = load i32, i32* %4, align 4
  store i32 %61, i32* %6, align 4
  %62 = load i32, i32* %5, align 4
  store i32 %62, i32* %7, align 4
  store i32 1, i32* %10, align 4
  br label %63

63:                                               ; preds = %60, %57, %48
  br label %64

64:                                               ; preds = %63
  %65 = load i32, i32* %5, align 4
  %66 = add nsw i32 %65, 1
  store i32 %66, i32* %5, align 4
  br label %44

67:                                               ; preds = %44
  br label %68

68:                                               ; preds = %67
  %69 = load i32, i32* %4, align 4
  %70 = add nsw i32 %69, 1
  store i32 %70, i32* %4, align 4
  br label %39

71:                                               ; preds = %39
  store i32 -1, i32* %11, align 4
  %72 = load i32, i32* %2, align 4
  %73 = sub nsw i32 %72, 1
  store i32 %73, i32* %4, align 4
  br label %74

74:                                               ; preds = %103, %71
  %75 = load i32, i32* %4, align 4
  %76 = icmp sge i32 %75, 0
  br i1 %76, label %77, label %106

77:                                               ; preds = %74
  %78 = load i32, i32* %2, align 4
  %79 = sub nsw i32 %78, 1
  store i32 %79, i32* %5, align 4
  br label %80

80:                                               ; preds = %99, %77
  %81 = load i32, i32* %5, align 4
  %82 = icmp sge i32 %81, 0
  br i1 %82, label %83, label %102

83:                                               ; preds = %80
  %84 = load i32, i32* %4, align 4
  %85 = sext i32 %84 to i64
  %86 = getelementptr inbounds [1000 x [1000 x i32]], [1000 x [1000 x i32]]* %3, i64 0, i64 %85
  %87 = load i32, i32* %5, align 4
  %88 = sext i32 %87 to i64
  %89 = getelementptr inbounds [1000 x i32], [1000 x i32]* %86, i64 0, i64 %88
  %90 = load i32, i32* %89, align 4
  %91 = icmp eq i32 %90, 0
  br i1 %91, label %92, label %98

92:                                               ; preds = %83
  %93 = load i32, i32* %11, align 4
  %94 = icmp eq i32 %93, -1
  br i1 %94, label %95, label %98

95:                                               ; preds = %92
  %96 = load i32, i32* %4, align 4
  store i32 %96, i32* %8, align 4
  %97 = load i32, i32* %5, align 4
  store i32 %97, i32* %9, align 4
  store i32 1, i32* %11, align 4
  br label %98

98:                                               ; preds = %95, %92, %83
  br label %99

99:                                               ; preds = %98
  %100 = load i32, i32* %5, align 4
  %101 = add nsw i32 %100, -1
  store i32 %101, i32* %5, align 4
  br label %80

102:                                              ; preds = %80
  br label %103

103:                                              ; preds = %102
  %104 = load i32, i32* %4, align 4
  %105 = add nsw i32 %104, -1
  store i32 %105, i32* %4, align 4
  br label %74

106:                                              ; preds = %74
  %107 = load i32, i32* %8, align 4
  %108 = load i32, i32* %6, align 4
  %109 = sub nsw i32 %107, %108
  %110 = sub nsw i32 %109, 1
  %111 = load i32, i32* %9, align 4
  %112 = load i32, i32* %7, align 4
  %113 = sub nsw i32 %111, %112
  %114 = sub nsw i32 %113, 1
  %115 = mul nsw i32 %110, %114
  store i32 %115, i32* %12, align 4
  %116 = load i32, i32* %12, align 4
  %117 = call i32 (i8*, ...) @printf(i8* getelementptr inbounds ([3 x i8], [3 x i8]* @.str, i64 0, i64 0), i32 %116)
  ret i32 0
}

declare dso_local i32 @__isoc99_scanf(i8*, ...) #1

declare dso_local i32 @printf(i8*, ...) #1


!llvm.module.flags = !{!0}
!llvm.ident = !{!1}

!0 = !{i32 1, !"wchar_size", i32 4}
!1 = !{!"clang version 10.0.0-4ubuntu1 "}
